target datalayout = "e-m:e-p270:32:32-p271:32:32-p272:64:64-i64:64-f80:128-n8:16:32:64-S128"
target triple = "x86_64-pc-linux-gnu"

@.str = private unnamed_addr constant [3 x i8] c"%d\00", align 1
@.str.1 = private unnamed_addr constant [4 x i8] c"%d,\00", align 1

; Function Attrs: noinline nounwind uwtable
define dso_local void @main() #0 {
  %1 = alloca i32, align 4
  %2 = alloca i32, align 4
  %3 = alloca [300 x i32], align 16
  %4 = alloca i32, align 4
  %5 = alloca [300 x i32], align 16
  %6 = alloca i32, align 4
  %7 = alloca i32, align 4
  %8 = alloca double, align 8
  %9 = alloca [300 x double], align 16
  %10 = alloca double, align 8
  store i32 0, i32* %4, align 4
  store i32 0, i32* %6, align 4
  %11 = call i32 (i8*, ...) @__isoc99_scanf(i8* getelementptr inbounds ([3 x i8], [3 x i8]* @.str, i64 0, i64 0), i32* %1)
  store i32 0, i32* %2, align 4
  br label %12

12:                                               ; preds = %21, %0
  %13 = load i32, i32* %2, align 4
  %14 = load i32, i32* %1, align 4
  %15 = icmp slt i32 %13, %14
  br i1 %15, label %16, label %24

16:                                               ; preds = %12
  %17 = load i32, i32* %2, align 4
  %18 = sext i32 %17 to i64
  %19 = getelementptr inbounds [300 x i32], [300 x i32]* %3, i64 0, i64 %18
  %20 = call i32 (i8*, ...) @__isoc99_scanf(i8* getelementptr inbounds ([3 x i8], [3 x i8]* @.str, i64 0, i64 0), i32* %19)
  br label %21

21:                                               ; preds = %16
  %22 = load i32, i32* %2, align 4
  %23 = add nsw i32 %22, 1
  store i32 %23, i32* %2, align 4
  br label %12

24:                                               ; preds = %12
  store i32 0, i32* %2, align 4
  br label %25

25:                                               ; preds = %36, %24
  %26 = load i32, i32* %2, align 4
  %27 = load i32, i32* %1, align 4
  %28 = icmp slt i32 %26, %27
  br i1 %28, label %29, label %39

29:                                               ; preds = %25
  %30 = load i32, i32* %4, align 4
  %31 = load i32, i32* %2, align 4
  %32 = sext i32 %31 to i64
  %33 = getelementptr inbounds [300 x i32], [300 x i32]* %3, i64 0, i64 %32
  %34 = load i32, i32* %33, align 4
  %35 = add nsw i32 %30, %34
  store i32 %35, i32* %4, align 4
  br label %36

36:                                               ; preds = %29
  %37 = load i32, i32* %2, align 4
  %38 = add nsw i32 %37, 1
  store i32 %38, i32* %2, align 4
  br label %25

39:                                               ; preds = %25
  %40 = load i32, i32* %4, align 4
  %41 = sitofp i32 %40 to double
  %42 = fmul double 1.000000e+00, %41
  %43 = load i32, i32* %1, align 4
  %44 = sitofp i32 %43 to double
  %45 = fdiv double %42, %44
  store double %45, double* %8, align 8
  store i32 0, i32* %2, align 4
  br label %46

46:                                               ; preds = %85, %39
  %47 = load i32, i32* %2, align 4
  %48 = load i32, i32* %1, align 4
  %49 = icmp slt i32 %47, %48
  br i1 %49, label %50, label %88

50:                                               ; preds = %46
  %51 = load i32, i32* %2, align 4
  %52 = sext i32 %51 to i64
  %53 = getelementptr inbounds [300 x i32], [300 x i32]* %3, i64 0, i64 %52
  %54 = load i32, i32* %53, align 4
  %55 = sitofp i32 %54 to double
  %56 = fmul double %55, 1.000000e+00
  %57 = load double, double* %8, align 8
  %58 = fsub double %56, %57
  %59 = fcmp oge double %58, 0.000000e+00
  br i1 %59, label %60, label %72

60:                                               ; preds = %50
  %61 = load i32, i32* %2, align 4
  %62 = sext i32 %61 to i64
  %63 = getelementptr inbounds [300 x i32], [300 x i32]* %3, i64 0, i64 %62
  %64 = load i32, i32* %63, align 4
  %65 = sitofp i32 %64 to double
  %66 = fmul double %65, 1.000000e+00
  %67 = load double, double* %8, align 8
  %68 = fsub double %66, %67
  %69 = load i32, i32* %2, align 4
  %70 = sext i32 %69 to i64
  %71 = getelementptr inbounds [300 x double], [300 x double]* %9, i64 0, i64 %70
  store double %68, double* %71, align 8
  br label %84

72:                                               ; preds = %50
  %73 = load double, double* %8, align 8
  %74 = load i32, i32* %2, align 4
  %75 = sext i32 %74 to i64
  %76 = getelementptr inbounds [300 x i32], [300 x i32]* %3, i64 0, i64 %75
  %77 = load i32, i32* %76, align 4
  %78 = sitofp i32 %77 to double
  %79 = fmul double %78, 1.000000e+00
  %80 = fsub double %73, %79
  %81 = load i32, i32* %2, align 4
  %82 = sext i32 %81 to i64
  %83 = getelementptr inbounds [300 x double], [300 x double]* %9, i64 0, i64 %82
  store double %80, double* %83, align 8
  br label %84

84:                                               ; preds = %72, %60
  br label %85

85:                                               ; preds = %84
  %86 = load i32, i32* %2, align 4
  %87 = add nsw i32 %86, 1
  store i32 %87, i32* %2, align 4
  br label %46

88:                                               ; preds = %46
  %89 = getelementptr inbounds [300 x double], [300 x double]* %9, i64 0, i64 0
  %90 = load double, double* %89, align 16
  store double %90, double* %10, align 8
  store i32 1, i32* %2, align 4
  br label %91

91:                                               ; preds = %108, %88
  %92 = load i32, i32* %2, align 4
  %93 = load i32, i32* %1, align 4
  %94 = icmp slt i32 %92, %93
  br i1 %94, label %95, label %111

95:                                               ; preds = %91
  %96 = load double, double* %10, align 8
  %97 = load i32, i32* %2, align 4
  %98 = sext i32 %97 to i64
  %99 = getelementptr inbounds [300 x double], [300 x double]* %9, i64 0, i64 %98
  %100 = load double, double* %99, align 8
  %101 = fcmp olt double %96, %100
  br i1 %101, label %102, label %107

102:                                              ; preds = %95
  %103 = load i32, i32* %2, align 4
  %104 = sext i32 %103 to i64
  %105 = getelementptr inbounds [300 x double], [300 x double]* %9, i64 0, i64 %104
  %106 = load double, double* %105, align 8
  store double %106, double* %10, align 8
  br label %107

107:                                              ; preds = %102, %95
  br label %108

108:                                              ; preds = %107
  %109 = load i32, i32* %2, align 4
  %110 = add nsw i32 %109, 1
  store i32 %110, i32* %2, align 4
  br label %91

111:                                              ; preds = %91
  store i32 0, i32* %2, align 4
  br label %112

112:                                              ; preds = %134, %111
  %113 = load i32, i32* %2, align 4
  %114 = load i32, i32* %1, align 4
  %115 = icmp slt i32 %113, %114
  br i1 %115, label %116, label %137

116:                                              ; preds = %112
  %117 = load i32, i32* %2, align 4
  %118 = sext i32 %117 to i64
  %119 = getelementptr inbounds [300 x double], [300 x double]* %9, i64 0, i64 %118
  %120 = load double, double* %119, align 8
  %121 = load double, double* %10, align 8
  %122 = fcmp oeq double %120, %121
  br i1 %122, label %123, label %133

123:                                              ; preds = %116
  %124 = load i32, i32* %2, align 4
  %125 = sext i32 %124 to i64
  %126 = getelementptr inbounds [300 x i32], [300 x i32]* %3, i64 0, i64 %125
  %127 = load i32, i32* %126, align 4
  %128 = load i32, i32* %6, align 4
  %129 = sext i32 %128 to i64
  %130 = getelementptr inbounds [300 x i32], [300 x i32]* %5, i64 0, i64 %129
  store i32 %127, i32* %130, align 4
  %131 = load i32, i32* %6, align 4
  %132 = add nsw i32 %131, 1
  store i32 %132, i32* %6, align 4
  br label %133

133:                                              ; preds = %123, %116
  br label %134

134:                                              ; preds = %133
  %135 = load i32, i32* %2, align 4
  %136 = add nsw i32 %135, 1
  store i32 %136, i32* %2, align 4
  br label %112

137:                                              ; preds = %112
  %138 = load i32, i32* %6, align 4
  %139 = icmp eq i32 %138, 1
  br i1 %139, label %140, label %144

140:                                              ; preds = %137
  %141 = getelementptr inbounds [300 x i32], [300 x i32]* %5, i64 0, i64 0
  %142 = load i32, i32* %141, align 16
  %143 = call i32 (i8*, ...) @printf(i8* getelementptr inbounds ([3 x i8], [3 x i8]* @.str, i64 0, i64 0), i32 %142)
  br label %170

144:                                              ; preds = %137
  %145 = load i32, i32* %6, align 4
  %146 = icmp sgt i32 %145, 1
  br i1 %146, label %147, label %169

147:                                              ; preds = %144
  store i32 0, i32* %7, align 4
  br label %148

148:                                              ; preds = %159, %147
  %149 = load i32, i32* %7, align 4
  %150 = load i32, i32* %6, align 4
  %151 = sub nsw i32 %150, 1
  %152 = icmp slt i32 %149, %151
  br i1 %152, label %153, label %162

153:                                              ; preds = %148
  %154 = load i32, i32* %7, align 4
  %155 = sext i32 %154 to i64
  %156 = getelementptr inbounds [300 x i32], [300 x i32]* %5, i64 0, i64 %155
  %157 = load i32, i32* %156, align 4
  %158 = call i32 (i8*, ...) @printf(i8* getelementptr inbounds ([4 x i8], [4 x i8]* @.str.1, i64 0, i64 0), i32 %157)
  br label %159

159:                                              ; preds = %153
  %160 = load i32, i32* %7, align 4
  %161 = add nsw i32 %160, 1
  store i32 %161, i32* %7, align 4
  br label %148

162:                                              ; preds = %148
  %163 = load i32, i32* %6, align 4
  %164 = sub nsw i32 %163, 1
  %165 = sext i32 %164 to i64
  %166 = getelementptr inbounds [300 x i32], [300 x i32]* %5, i64 0, i64 %165
  %167 = load i32, i32* %166, align 4
  %168 = call i32 (i8*, ...) @printf(i8* getelementptr inbounds ([3 x i8], [3 x i8]* @.str, i64 0, i64 0), i32 %167)
  br label %169

169:                                              ; preds = %162, %144
  br label %170

170:                                              ; preds = %169, %140
  ret void
}